target datalayout = "e-m:e-p270:32:32-p271:32:32-p272:64:64-i64:64-i128:128-f80:128-n8:16:32:64-S128"
target triple = "x86_64-unknown-linux-gnu"

%struct.malloc_mutex_s = type { %union.anon }
%union.anon = type { %struct.anon.1 }
%struct.anon.1 = type { %struct.mutex_prof_data_t, %union.pthread_mutex_t, %struct.atomic_b_t }
%struct.mutex_prof_data_t = type { %struct.nstime_t, %struct.nstime_t, i64, i64, i32, %struct.atomic_u32_t, i64, ptr, i64 }
%struct.nstime_t = type { i64 }
%struct.atomic_u32_t = type { i32 }
%union.pthread_mutex_t = type { %struct.__pthread_mutex_s }
%struct.__pthread_mutex_s = type { i32, i32, i32, i32, i32, i16, i16, %struct.__pthread_internal_list }
%struct.__pthread_internal_list = type { ptr, ptr }
%struct.atomic_b_t = type { i8 }
%struct.atomic_zd_t = type { i64 }
%struct.hpa_shard_opts_s = type { i64, i64, i32, i8, i64, i64 }
%struct.sec_opts_s = type { i64, i64, i64, i64, i64 }
%struct.arena_s = type { [2 x %struct.atomic_u_t], %struct.atomic_u_t, ptr, %struct.arena_stats_s, %struct.anon, %struct.anon.0, %struct.malloc_mutex_s, %struct.atomic_u_t, %struct.edata_list_active_t, %struct.malloc_mutex_s, %struct.pa_shard_s, i32, ptr, %struct.nstime_t, [0 x %struct.bin_s] }
%struct.arena_stats_s = type { i64, i64, i64, i64, %struct.atomic_zu_t, i64, i64, i64, i64, i64, i64, %struct.pa_shard_stats_s, i64, i64, [12 x %struct.mutex_prof_data_t], [196 x %struct.arena_stats_large_s], %struct.nstime_t }
%struct.atomic_zu_t = type { i64 }
%struct.pa_shard_stats_s = type { i64, %struct.pac_stats_s }
%struct.pac_stats_s = type { %struct.pac_decay_stats_s, %struct.pac_decay_stats_s, i64, %struct.atomic_zu_t, %struct.atomic_zu_t }
%struct.pac_decay_stats_s = type { %struct.locked_u64_s, %struct.locked_u64_s, %struct.locked_u64_s }
%struct.locked_u64_s = type { %struct.atomic_u64_t }
%struct.atomic_u64_t = type { i64 }
%struct.arena_stats_large_s = type { %struct.locked_u64_s, %struct.locked_u64_s, %struct.locked_u64_s, %struct.locked_u64_s, %struct.locked_u64_s, i64 }
%struct.anon = type { ptr }
%struct.anon.0 = type { ptr }
%struct.atomic_u_t = type { i32 }
%struct.edata_list_active_t = type { %struct.anon.3 }
%struct.anon.3 = type { ptr }
%struct.pa_shard_s = type { ptr, %struct.atomic_zu_t, %struct.atomic_b_t, i8, %struct.pac_s, %struct.sec_s, %struct.hpa_shard_s, %struct.edata_cache_s, i32, ptr, ptr, ptr, ptr }
%struct.pac_s = type { %struct.pai_s, %struct.ecache_s, %struct.ecache_s, %struct.ecache_s, ptr, ptr, ptr, %struct.exp_grow_s, %struct.malloc_mutex_s, %struct.san_bump_alloc_s, %struct.atomic_zu_t, %struct.decay_s, %struct.decay_s, ptr, ptr, %struct.atomic_zu_t }
%struct.pai_s = type { ptr, ptr, ptr, ptr, ptr, ptr, ptr }
%struct.ecache_s = type { %struct.malloc_mutex_s, %struct.eset_s, %struct.eset_s, i32, i32, i8 }
%struct.eset_s = type { [4 x i64], [200 x %struct.eset_bin_s], [200 x %struct.eset_bin_stats_s], %struct.edata_list_inactive_t, %struct.atomic_zu_t, i32 }
%struct.eset_bin_s = type { %struct.edata_heap_t, %struct.edata_cmp_summary_s }
%struct.edata_heap_t = type { %struct.ph_s }
%struct.ph_s = type { ptr, i64 }
%struct.edata_cmp_summary_s = type { i64, i64 }
%struct.eset_bin_stats_s = type { %struct.atomic_zu_t, %struct.atomic_zu_t }
%struct.edata_list_inactive_t = type { %struct.anon.4 }
%struct.anon.4 = type { ptr }
%struct.exp_grow_s = type { i32, i32 }
%struct.san_bump_alloc_s = type { %struct.malloc_mutex_s, ptr }
%struct.decay_s = type { %struct.malloc_mutex_s, i8, %struct.atomic_zd_t, %struct.nstime_t, %struct.nstime_t, i64, %struct.nstime_t, i64, i64, [200 x i64], i64 }
%struct.sec_s = type { %struct.pai_s, ptr, %struct.sec_opts_s, ptr, i32 }
%struct.hpa_shard_s = type { %struct.pai_s, ptr, %struct.malloc_mutex_s, %struct.malloc_mutex_s, ptr, %struct.edata_cache_fast_s, %struct.psset_s, i64, i32, ptr, %struct.hpa_shard_opts_s, i64, %struct.hpa_shard_nonderived_stats_s, %struct.nstime_t }
%struct.edata_cache_fast_s = type { %struct.edata_list_inactive_t, ptr, i8 }
%struct.psset_s = type { [64 x %struct.hpdata_age_heap_t], [1 x i64], %struct.psset_bin_stats_s, %struct.psset_stats_s, %struct.hpdata_empty_list_t, [128 x %struct.hpdata_purge_list_t], [2 x i64], %struct.hpdata_hugify_list_t }
%struct.hpdata_age_heap_t = type { %struct.ph_s }
%struct.psset_bin_stats_s = type { i64, i64, i64 }
%struct.psset_stats_s = type { [64 x [2 x %struct.psset_bin_stats_s]], [2 x %struct.psset_bin_stats_s], [2 x %struct.psset_bin_stats_s] }
%struct.hpdata_empty_list_t = type { %struct.anon.5 }
%struct.anon.5 = type { ptr }
%struct.hpdata_purge_list_t = type { %struct.anon.6 }
%struct.anon.6 = type { ptr }
%struct.hpdata_hugify_list_t = type { %struct.anon.7 }
%struct.anon.7 = type { ptr }
%struct.hpa_shard_nonderived_stats_s = type { i64, i64, i64, i64 }
%struct.edata_cache_s = type { %struct.edata_avail_t, %struct.atomic_zu_t, %struct.malloc_mutex_s, ptr }
%struct.edata_avail_t = type { %struct.ph_s }
%struct.bin_s = type { %struct.malloc_mutex_s, %struct.bin_stats_s, ptr, %struct.edata_heap_t, %struct.edata_list_active_t }
%struct.bin_stats_s = type { i64, i64, i64, i64, i64, i64, i64, i64, i64, i64 }

@dss_prec_names = external global [0 x ptr], align 8

; Function Attrs: nounwind uwtable
define hidden i64 @arena_decay_ms_get(ptr noundef %arena, i32 noundef %state) #0 {
entry:
  %arena.addr = alloca ptr, align 8
  %state.addr = alloca i32, align 4
  store ptr %arena, ptr %arena.addr, align 8
  store i32 %state, ptr %state.addr, align 4
  %0 = load ptr, ptr %arena.addr, align 8
  %pa_shard = getelementptr inbounds %struct.arena_s, ptr %0, i32 0, i32 10
  %1 = load i32, ptr %state.addr, align 4
  %call = call i64 @pa_decay_ms_get(ptr noundef %pa_shard, i32 noundef %1)
  ret i64 %call
}

; Function Attrs: nounwind uwtable
define hidden i32 @arena_dss_prec_get(ptr noundef %arena) #0 {
entry:
  %retval.i = alloca i32, align 4
  %mo.addr.i1 = alloca i32, align 4
  %a.addr.i = alloca ptr, align 8
  %mo.addr.i = alloca i32, align 4
  %result.i = alloca i32, align 4
  %arena.addr = alloca ptr, align 8
  store ptr %arena, ptr %arena.addr, align 8
  %0 = load ptr, ptr %arena.addr, align 8
  %dss_prec = getelementptr inbounds %struct.arena_s, ptr %0, i32 0, i32 7
  store ptr %dss_prec, ptr %a.addr.i, align 8
  store i32 1, ptr %mo.addr.i, align 4
  %1 = load ptr, ptr %a.addr.i, align 8
  %2 = load i32, ptr %mo.addr.i, align 4
  store i32 %2, ptr %mo.addr.i1, align 4
  %3 = load i32, ptr %mo.addr.i1, align 4
  switch i32 %3, label %sw.epilog.i [
    i32 0, label %sw.bb.i
    i32 1, label %sw.bb1.i
    i32 2, label %sw.bb2.i
    i32 3, label %sw.bb3.i
    i32 4, label %sw.bb4.i
  ]

sw.bb.i:                                          ; preds = %entry
  store i32 0, ptr %retval.i, align 4
  br label %atomic_enum_to_builtin.exit

sw.bb1.i:                                         ; preds = %entry
  store i32 2, ptr %retval.i, align 4
  br label %atomic_enum_to_builtin.exit

sw.bb2.i:                                         ; preds = %entry
  store i32 3, ptr %retval.i, align 4
  br label %atomic_enum_to_builtin.exit

sw.bb3.i:                                         ; preds = %entry
  store i32 4, ptr %retval.i, align 4
  br label %atomic_enum_to_builtin.exit

sw.bb4.i:                                         ; preds = %entry
  store i32 5, ptr %retval.i, align 4
  br label %atomic_enum_to_builtin.exit

sw.epilog.i:                                      ; preds = %entry
  unreachable

atomic_enum_to_builtin.exit:                      ; preds = %sw.bb4.i, %sw.bb3.i, %sw.bb2.i, %sw.bb1.i, %sw.bb.i
  %4 = load i32, ptr %retval.i, align 4
  switch i32 %4, label %monotonic.i [
    i32 1, label %acquire.i
    i32 2, label %acquire.i
    i32 5, label %seqcst.i
  ]

monotonic.i:                                      ; preds = %atomic_enum_to_builtin.exit
  %5 = load atomic i32, ptr %1 monotonic, align 4
  store i32 %5, ptr %result.i, align 4
  br label %atomic_load_u.exit

acquire.i:                                        ; preds = %atomic_enum_to_builtin.exit, %atomic_enum_to_builtin.exit
  %6 = load atomic i32, ptr %1 acquire, align 4
  store i32 %6, ptr %result.i, align 4
  br label %atomic_load_u.exit

seqcst.i:                                         ; preds = %atomic_enum_to_builtin.exit
  %7 = load atomic i32, ptr %1 seq_cst, align 4
  store i32 %7, ptr %result.i, align 4
  br label %atomic_load_u.exit

atomic_load_u.exit:                               ; preds = %seqcst.i, %acquire.i, %monotonic.i
  %8 = load i32, ptr %result.i, align 4
  ret i32 %8
}

; Function Attrs: nounwind uwtable
define hidden i32 @arena_nthreads_get(ptr noundef %arena, i1 noundef zeroext %internal) #0 {
entry:
  %retval.i = alloca i32, align 4
  %mo.addr.i1 = alloca i32, align 4
  %a.addr.i = alloca ptr, align 8
  %mo.addr.i = alloca i32, align 4
  %result.i = alloca i32, align 4
  %arena.addr = alloca ptr, align 8
  %internal.addr = alloca i8, align 1
  store ptr %arena, ptr %arena.addr, align 8
  %frombool = zext i1 %internal to i8
  store i8 %frombool, ptr %internal.addr, align 1
  %0 = load ptr, ptr %arena.addr, align 8
  %nthreads = getelementptr inbounds %struct.arena_s, ptr %0, i32 0, i32 0
  %1 = load i8, ptr %internal.addr, align 1
  %tobool = trunc i8 %1 to i1
  %idxprom = zext i1 %tobool to i64
  %arrayidx = getelementptr inbounds [2 x %struct.atomic_u_t], ptr %nthreads, i64 0, i64 %idxprom
  store ptr %arrayidx, ptr %a.addr.i, align 8
  store i32 0, ptr %mo.addr.i, align 4
  %2 = load ptr, ptr %a.addr.i, align 8
  %3 = load i32, ptr %mo.addr.i, align 4
  store i32 %3, ptr %mo.addr.i1, align 4
  %4 = load i32, ptr %mo.addr.i1, align 4
  switch i32 %4, label %sw.epilog.i [
    i32 0, label %sw.bb.i
    i32 1, label %sw.bb1.i
    i32 2, label %sw.bb2.i
    i32 3, label %sw.bb3.i
    i32 4, label %sw.bb4.i
  ]

sw.bb.i:                                          ; preds = %entry
  store i32 0, ptr %retval.i, align 4
  br label %atomic_enum_to_builtin.exit

sw.bb1.i:                                         ; preds = %entry
  store i32 2, ptr %retval.i, align 4
  br label %atomic_enum_to_builtin.exit

sw.bb2.i:                                         ; preds = %entry
  store i32 3, ptr %retval.i, align 4
  br label %atomic_enum_to_builtin.exit

sw.bb3.i:                                         ; preds = %entry
  store i32 4, ptr %retval.i, align 4
  br label %atomic_enum_to_builtin.exit

sw.bb4.i:                                         ; preds = %entry
  store i32 5, ptr %retval.i, align 4
  br label %atomic_enum_to_builtin.exit

sw.epilog.i:                                      ; preds = %entry
  unreachable

atomic_enum_to_builtin.exit:                      ; preds = %sw.bb4.i, %sw.bb3.i, %sw.bb2.i, %sw.bb1.i, %sw.bb.i
  %5 = load i32, ptr %retval.i, align 4
  switch i32 %5, label %monotonic.i [
    i32 1, label %acquire.i
    i32 2, label %acquire.i
    i32 5, label %seqcst.i
  ]

monotonic.i:                                      ; preds = %atomic_enum_to_builtin.exit
  %6 = load atomic i32, ptr %2 monotonic, align 4
  store i32 %6, ptr %result.i, align 4
  br label %atomic_load_u.exit

acquire.i:                                        ; preds = %atomic_enum_to_builtin.exit, %atomic_enum_to_builtin.exit
  %7 = load atomic i32, ptr %2 acquire, align 4
  store i32 %7, ptr %result.i, align 4
  br label %atomic_load_u.exit

seqcst.i:                                         ; preds = %atomic_enum_to_builtin.exit
  %8 = load atomic i32, ptr %2 seq_cst, align 4
  store i32 %8, ptr %result.i, align 4
  br label %atomic_load_u.exit

atomic_load_u.exit:                               ; preds = %seqcst.i, %acquire.i, %monotonic.i
  %9 = load i32, ptr %result.i, align 4
  ret i32 %9
}

; Function Attrs: nounwind uwtable
define hidden void @arena_basic_stats_merge(ptr noundef %tsdn, ptr noundef %arena, ptr noundef %nthreads, ptr noundef %dss, ptr noundef %dirty_decay_ms, ptr noundef %muzzy_decay_ms, ptr noundef %nactive, ptr noundef %ndirty, ptr noundef %nmuzzy) #0 {
entry:
  %tsdn.addr = alloca ptr, align 8
  %arena.addr = alloca ptr, align 8
  %nthreads.addr = alloca ptr, align 8
  %dss.addr = alloca ptr, align 8
  %dirty_decay_ms.addr = alloca ptr, align 8
  %muzzy_decay_ms.addr = alloca ptr, align 8
  %nactive.addr = alloca ptr, align 8
  %ndirty.addr = alloca ptr, align 8
  %nmuzzy.addr = alloca ptr, align 8
  store ptr %tsdn, ptr %tsdn.addr, align 8
  store ptr %arena, ptr %arena.addr, align 8
  store ptr %nthreads, ptr %nthreads.addr, align 8
  store ptr %dss, ptr %dss.addr, align 8
  store ptr %dirty_decay_ms, ptr %dirty_decay_ms.addr, align 8
  store ptr %muzzy_decay_ms, ptr %muzzy_decay_ms.addr, align 8
  store ptr %nactive, ptr %nactive.addr, align 8
  store ptr %ndirty, ptr %ndirty.addr, align 8
  store ptr %nmuzzy, ptr %nmuzzy.addr, align 8
  %0 = load ptr, ptr %arena.addr, align 8
  %call = call i32 @arena_nthreads_get(ptr noundef %0, i1 noundef zeroext false)
  %1 = load ptr, ptr %nthreads.addr, align 8
  %2 = load i32, ptr %1, align 4
  %add = add i32 %2, %call
  store i32 %add, ptr %1, align 4
  %3 = load ptr, ptr %arena.addr, align 8
  %call1 = call i32 @arena_dss_prec_get(ptr noundef %3)
  %idxprom = zext i32 %call1 to i64
  %arrayidx = getelementptr inbounds [0 x ptr], ptr @dss_prec_names, i64 0, i64 %idxprom
  %4 = load ptr, ptr %arrayidx, align 8
  %5 = load ptr, ptr %dss.addr, align 8
  store ptr %4, ptr %5, align 8
  %6 = load ptr, ptr %arena.addr, align 8
  %call2 = call i64 @arena_decay_ms_get(ptr noundef %6, i32 noundef 1)
  %7 = load ptr, ptr %dirty_decay_ms.addr, align 8
  store i64 %call2, ptr %7, align 8
  %8 = load ptr, ptr %arena.addr, align 8
  %call3 = call i64 @arena_decay_ms_get(ptr noundef %8, i32 noundef 2)
  %9 = load ptr, ptr %muzzy_decay_ms.addr, align 8
  store i64 %call3, ptr %9, align 8
  %10 = load ptr, ptr %arena.addr, align 8
  %pa_shard = getelementptr inbounds %struct.arena_s, ptr %10, i32 0, i32 10
  %11 = load ptr, ptr %nactive.addr, align 8
  %12 = load ptr, ptr %ndirty.addr, align 8
  %13 = load ptr, ptr %nmuzzy.addr, align 8
  call void @pa_shard_basic_stats_merge(ptr noundef %pa_shard, ptr noundef %11, ptr noundef %12, ptr noundef %13)
  ret void
}