; Function Attrs: nounwind uwtable
define hidden void @arena_basic_stats_merge(ptr nocapture noundef readnone %tsdn, ptr noundef %arena, ptr nocapture noundef %nthreads, ptr nocapture noundef writeonly %dss, ptr nocapture noundef writeonly %dirty_decay_ms, ptr nocapture noundef writeonly %muzzy_decay_ms, ptr noundef %nactive, ptr noundef %ndirty, ptr noundef %nmuzzy) local_unnamed_addr #0 {
entry:
  %0 = load atomic i32, ptr %arena monotonic, align 4
  %1 = load i32, ptr %nthreads, align 4
  %add = add i32 %1, %0
  store i32 %add, ptr %nthreads, align 4
  %dss_prec.i = getelementptr inbounds i8, ptr %arena, i64 10520
  %2 = load atomic i32, ptr %dss_prec.i acquire, align 4
  %idxprom = zext i32 %2 to i64
  %arrayidx = getelementptr inbounds [0 x ptr], ptr @dss_prec_names, i64 0, i64 %idxprom
  %3 = load ptr, ptr %arrayidx, align 8
  store ptr %3, ptr %dss, align 8
  %pa_shard.i = getelementptr inbounds i8, ptr %arena, i64 10648
  %call.i = tail call i64 @pa_decay_ms_get(ptr noundef nonnull %pa_shard.i, i32 noundef 1) #15
  store i64 %call.i, ptr %dirty_decay_ms, align 8
  %call.i6 = tail call i64 @pa_decay_ms_get(ptr noundef nonnull %pa_shard.i, i32 noundef 2) #15
  store i64 %call.i6, ptr %muzzy_decay_ms, align 8
  tail call void @pa_shard_basic_stats_merge(ptr noundef nonnull %pa_shard.i, ptr noundef %nactive, ptr noundef %ndirty, ptr noundef %nmuzzy) #15
  ret void
}